; Function Attrs: mustprogress nofree norecurse nosync nounwind willreturn memory(read, inaccessiblemem: none) uwtable
define dso_local ptr @get_midx_checksum(ptr noundef readonly captures(none) %0) local_unnamed_addr #0 {
  %2 = getelementptr inbounds nuw i8, ptr %0, i64 8
  %3 = load ptr, ptr %2, align 8, !tbaa !4
  %4 = getelementptr inbounds nuw i8, ptr %0, i64 16
  %5 = load i64, ptr %4, align 8, !tbaa !9
  %6 = getelementptr inbounds nuw i8, ptr %3, i64 %5
  %7 = getelementptr inbounds nuw i8, ptr %0, i64 200
  %8 = load ptr, ptr %7, align 8, !tbaa !11
  %9 = getelementptr inbounds nuw i8, ptr %8, i64 400
  %10 = load ptr, ptr %9, align 8, !tbaa !13
  %11 = getelementptr inbounds nuw i8, ptr %10, i64 16
  %12 = load i64, ptr %11, align 8, !tbaa !32
  %13 = sub i64 0, %12
  %14 = getelementptr inbounds i8, ptr %6, i64 %13
  ret ptr %14
}